; Function Attrs: mustprogress uwtable
define hidden void @_ZN19OpenColorIO_v2_4dev22XmlReaderSaturationEltC2ERKNSt7__cxx1112basic_stringIcSt11char_traitsIcESaIcEEESt10shared_ptrINS_21XmlReaderContainerEltEEjS8_(ptr noundef nonnull align 8 dereferenceable(128) %this, ptr noundef nonnull align 8 dereferenceable(32) %name, ptr nocapture noundef readonly %pParent, i32 noundef %xmlLineNumber, ptr noundef nonnull align 8 dereferenceable(32) %xmlFile) unnamed_addr #4 align 2 personality ptr @__gxx_personality_v0 {
entry:
  %agg.tmp = alloca %"class.std::shared_ptr.1", align 8
  %0 = load ptr, ptr %pParent, align 8
  store ptr %0, ptr %agg.tmp, align 8
  %_M_refcount.i.i = getelementptr inbounds i8, ptr %agg.tmp, i64 8
  %_M_refcount3.i.i = getelementptr inbounds i8, ptr %pParent, i64 8
  %1 = load ptr, ptr %_M_refcount3.i.i, align 8
  store ptr %1, ptr %_M_refcount.i.i, align 8
  %cmp.not.i.i.i = icmp eq ptr %1, null
  br i1 %cmp.not.i.i.i, label %_ZNSt10shared_ptrIN19OpenColorIO_v2_4dev21XmlReaderContainerEltEEC2ERKS2_.exit, label %if.then.i.i.i

if.then.i.i.i:                                    ; preds = %entry
  %_M_use_count.i.i.i.i = getelementptr inbounds i8, ptr %1, i64 8
  %2 = load i8, ptr @__libc_single_threaded, align 1
  %tobool.i.i.not.i.i.i.i = icmp eq i8 %2, 0
  br i1 %tobool.i.i.not.i.i.i.i, label %if.else.i.i.i.i.i, label %if.then.i.i.i.i.i

if.then.i.i.i.i.i:                                ; preds = %if.then.i.i.i
  %3 = load i32, ptr %_M_use_count.i.i.i.i, align 4
  %add.i.i.i.i.i = add nsw i32 %3, 1
  store i32 %add.i.i.i.i.i, ptr %_M_use_count.i.i.i.i, align 4
  br label %_ZNSt10shared_ptrIN19OpenColorIO_v2_4dev21XmlReaderContainerEltEEC2ERKS2_.exit

if.else.i.i.i.i.i:                                ; preds = %if.then.i.i.i
  %4 = atomicrmw volatile add ptr %_M_use_count.i.i.i.i, i32 1 acq_rel, align 4
  br label %_ZNSt10shared_ptrIN19OpenColorIO_v2_4dev21XmlReaderContainerEltEEC2ERKS2_.exit

_ZNSt10shared_ptrIN19OpenColorIO_v2_4dev21XmlReaderContainerEltEEC2ERKS2_.exit: ; preds = %entry, %if.then.i.i.i.i.i, %if.else.i.i.i.i.i
  store ptr getelementptr inbounds ({ [10 x ptr] }, ptr @_ZTVN19OpenColorIO_v2_4dev16XmlReaderElementE, i64 0, i32 0, i64 2), ptr %this, align 8
  %m_name.i.i = getelementptr inbounds i8, ptr %this, i64 8
  invoke void @_ZNSt7__cxx1112basic_stringIcSt11char_traitsIcESaIcEEC1ERKS4_(ptr noundef nonnull align 8 dereferenceable(32) %m_name.i.i, ptr noundef nonnull align 8 dereferenceable(32) %name)
          to label %.noexc unwind label %lpad

.noexc:                                           ; preds = %_ZNSt10shared_ptrIN19OpenColorIO_v2_4dev21XmlReaderContainerEltEEC2ERKS2_.exit
  %m_xmlLineNumber.i.i = getelementptr inbounds i8, ptr %this, i64 40
  store i32 %xmlLineNumber, ptr %m_xmlLineNumber.i.i, align 8
  %m_xmlFile.i.i = getelementptr inbounds i8, ptr %this, i64 48
  invoke void @_ZNSt7__cxx1112basic_stringIcSt11char_traitsIcESaIcEEC1ERKS4_(ptr noundef nonnull align 8 dereferenceable(32) %m_xmlFile.i.i, ptr noundef nonnull align 8 dereferenceable(32) %xmlFile)
          to label %_ZN19OpenColorIO_v2_4dev16XmlReaderElementC2ERKNSt7__cxx1112basic_stringIcSt11char_traitsIcESaIcEEEjS8_.exit.i unwind label %lpad.i.i

lpad.i.i:                                         ; preds = %.noexc
  %5 = landingpad { ptr, i32 }
          cleanup
  tail call void @_ZNSt7__cxx1112basic_stringIcSt11char_traitsIcESaIcEED1Ev(ptr noundef nonnull align 8 dereferenceable(32) %m_name.i.i) #25
  br label %lpad.body

_ZN19OpenColorIO_v2_4dev16XmlReaderElementC2ERKNSt7__cxx1112basic_stringIcSt11char_traitsIcESaIcEEEjS8_.exit.i: ; preds = %.noexc
  store ptr getelementptr inbounds ({ [11 x ptr] }, ptr @_ZTVN19OpenColorIO_v2_4dev17XmlReaderPlainEltE, i64 0, i32 0, i64 2), ptr %this, align 8
  %m_parent.i = getelementptr inbounds i8, ptr %this, i64 80
  %6 = load ptr, ptr %agg.tmp, align 8
  store ptr %6, ptr %m_parent.i, align 8
  %_M_refcount.i.i.i = getelementptr inbounds i8, ptr %this, i64 88
  %7 = load ptr, ptr %_M_refcount.i.i, align 8
  store ptr %7, ptr %_M_refcount.i.i.i, align 8
  %cmp.not.i.i.i.i = icmp eq ptr %7, null
  br i1 %cmp.not.i.i.i.i, label %_ZNSt10shared_ptrIN19OpenColorIO_v2_4dev21XmlReaderContainerEltEED2Ev.exit, label %if.then.i.i.i.i

if.then.i.i.i.i:                                  ; preds = %_ZN19OpenColorIO_v2_4dev16XmlReaderElementC2ERKNSt7__cxx1112basic_stringIcSt11char_traitsIcESaIcEEEjS8_.exit.i
  %_M_use_count.i.i.i.i.i = getelementptr inbounds i8, ptr %7, i64 8
  %8 = load i8, ptr @__libc_single_threaded, align 1
  %tobool.i.i.not.i.i.i.i.i = icmp eq i8 %8, 0
  br i1 %tobool.i.i.not.i.i.i.i.i, label %invoke.cont, label %invoke.cont.thread

invoke.cont.thread:                               ; preds = %if.then.i.i.i.i
  %9 = load i32, ptr %_M_use_count.i.i.i.i.i, align 4
  %add.i.i.i.i.i.i = add nsw i32 %9, 1
  store i32 %add.i.i.i.i.i.i, ptr %_M_use_count.i.i.i.i.i, align 4
  br label %if.then.i.i.i3

invoke.cont:                                      ; preds = %if.then.i.i.i.i
  %10 = atomicrmw volatile add ptr %_M_use_count.i.i.i.i.i, i32 1 acq_rel, align 4
  %.pr.pre = load ptr, ptr %_M_refcount.i.i, align 8
  %cmp.not.i.i.i2 = icmp eq ptr %.pr.pre, null
  br i1 %cmp.not.i.i.i2, label %_ZNSt10shared_ptrIN19OpenColorIO_v2_4dev21XmlReaderContainerEltEED2Ev.exit, label %if.then.i.i.i3

if.then.i.i.i3:                                   ; preds = %invoke.cont.thread, %invoke.cont
  %.pr13 = phi ptr [ %7, %invoke.cont.thread ], [ %.pr.pre, %invoke.cont ]
  %_M_use_count.i.i.i.i4 = getelementptr inbounds i8, ptr %.pr13, i64 8
  %11 = load atomic i64, ptr %_M_use_count.i.i.i.i4 acquire, align 8
  %cmp.i.i.i.i = icmp eq i64 %11, 4294967297
  %12 = trunc i64 %11 to i32
  br i1 %cmp.i.i.i.i, label %if.then.i.i.i.i8, label %if.end.i.i.i.i

if.then.i.i.i.i8:                                 ; preds = %if.then.i.i.i3
  store i32 0, ptr %_M_use_count.i.i.i.i4, align 8
  %_M_weak_count.i.i.i.i = getelementptr inbounds i8, ptr %.pr13, i64 12
  store i32 0, ptr %_M_weak_count.i.i.i.i, align 4
  %vtable.i.i.i.i = load ptr, ptr %.pr13, align 8
  %vfn.i.i.i.i = getelementptr inbounds i8, ptr %vtable.i.i.i.i, i64 16
  %13 = load ptr, ptr %vfn.i.i.i.i, align 8
  tail call void %13(ptr noundef nonnull align 8 dereferenceable(16) %.pr13) #25
  br label %if.end8.sink.split.i.i.i.i

if.end.i.i.i.i:                                   ; preds = %if.then.i.i.i3
  %14 = load i8, ptr @__libc_single_threaded, align 1
  %tobool.i.not.i.i.i.i = icmp eq i8 %14, 0
  br i1 %tobool.i.not.i.i.i.i, label %if.else.i.i.i.i.i7, label %if.then.i.i.i.i.i5

if.then.i.i.i.i.i5:                               ; preds = %if.end.i.i.i.i
  %add.i.i.i.i.i6 = add nsw i32 %12, -1
  store i32 %add.i.i.i.i.i6, ptr %_M_use_count.i.i.i.i4, align 4
  br label %_ZN9__gnu_cxx27__exchange_and_add_dispatchEPii.exit.i.i.i.i

if.else.i.i.i.i.i7:                               ; preds = %if.end.i.i.i.i
  %15 = atomicrmw volatile add ptr %_M_use_count.i.i.i.i4, i32 -1 acq_rel, align 4
  br label %_ZN9__gnu_cxx27__exchange_and_add_dispatchEPii.exit.i.i.i.i

_ZN9__gnu_cxx27__exchange_and_add_dispatchEPii.exit.i.i.i.i: ; preds = %if.else.i.i.i.i.i7, %if.then.i.i.i.i.i5
  %retval.i.0.i.i.i.i = phi i32 [ %12, %if.then.i.i.i.i.i5 ], [ %15, %if.else.i.i.i.i.i7 ]
  %cmp6.i.i.i.i = icmp eq i32 %retval.i.0.i.i.i.i, 1
  br i1 %cmp6.i.i.i.i, label %if.then7.i.i.i.i, label %_ZNSt10shared_ptrIN19OpenColorIO_v2_4dev21XmlReaderContainerEltEED2Ev.exit

if.then7.i.i.i.i:                                 ; preds = %_ZN9__gnu_cxx27__exchange_and_add_dispatchEPii.exit.i.i.i.i
  %vtable.i.i.i.i.i.i = load ptr, ptr %.pr13, align 8
  %vfn.i.i.i.i.i.i = getelementptr inbounds i8, ptr %vtable.i.i.i.i.i.i, i64 16
  %16 = load ptr, ptr %vfn.i.i.i.i.i.i, align 8
  tail call void %16(ptr noundef nonnull align 8 dereferenceable(16) %.pr13) #25
  %_M_weak_count.i.i.i.i.i.i = getelementptr inbounds i8, ptr %.pr13, i64 12
  %17 = load i8, ptr @__libc_single_threaded, align 1
  %tobool.i.not.i.i.i.i.i.i = icmp eq i8 %17, 0
  br i1 %tobool.i.not.i.i.i.i.i.i, label %if.else.i.i.i.i.i.i.i, label %if.then.i.i.i.i.i.i.i

if.then.i.i.i.i.i.i.i:                            ; preds = %if.then7.i.i.i.i
  %18 = load i32, ptr %_M_weak_count.i.i.i.i.i.i, align 4
  %add.i.i.i.i.i.i.i = add nsw i32 %18, -1
  store i32 %add.i.i.i.i.i.i.i, ptr %_M_weak_count.i.i.i.i.i.i, align 4
  br label %_ZN9__gnu_cxx27__exchange_and_add_dispatchEPii.exit.i.i.i.i.i.i

if.else.i.i.i.i.i.i.i:                            ; preds = %if.then7.i.i.i.i
  %19 = atomicrmw volatile add ptr %_M_weak_count.i.i.i.i.i.i, i32 -1 acq_rel, align 4
  br label %_ZN9__gnu_cxx27__exchange_and_add_dispatchEPii.exit.i.i.i.i.i.i

_ZN9__gnu_cxx27__exchange_and_add_dispatchEPii.exit.i.i.i.i.i.i: ; preds = %if.else.i.i.i.i.i.i.i, %if.then.i.i.i.i.i.i.i
  %retval.i.0.i.i.i.i.i.i = phi i32 [ %18, %if.then.i.i.i.i.i.i.i ], [ %19, %if.else.i.i.i.i.i.i.i ]
  %cmp.i.i.i.i.i.i = icmp eq i32 %retval.i.0.i.i.i.i.i.i, 1
  br i1 %cmp.i.i.i.i.i.i, label %if.end8.sink.split.i.i.i.i, label %_ZNSt10shared_ptrIN19OpenColorIO_v2_4dev21XmlReaderContainerEltEED2Ev.exit

if.end8.sink.split.i.i.i.i:                       ; preds = %_ZN9__gnu_cxx27__exchange_and_add_dispatchEPii.exit.i.i.i.i.i.i, %if.then.i.i.i.i8
  %vtable2.i.i.i.i.i.i = load ptr, ptr %.pr13, align 8
  %vfn3.i.i.i.i.i.i = getelementptr inbounds i8, ptr %vtable2.i.i.i.i.i.i, i64 24
  %20 = load ptr, ptr %vfn3.i.i.i.i.i.i, align 8
  tail call void %20(ptr noundef nonnull align 8 dereferenceable(16) %.pr13) #25
  br label %_ZNSt10shared_ptrIN19OpenColorIO_v2_4dev21XmlReaderContainerEltEED2Ev.exit

_ZNSt10shared_ptrIN19OpenColorIO_v2_4dev21XmlReaderContainerEltEED2Ev.exit: ; preds = %_ZN19OpenColorIO_v2_4dev16XmlReaderElementC2ERKNSt7__cxx1112basic_stringIcSt11char_traitsIcESaIcEEEjS8_.exit.i, %invoke.cont, %_ZN9__gnu_cxx27__exchange_and_add_dispatchEPii.exit.i.i.i.i, %_ZN9__gnu_cxx27__exchange_and_add_dispatchEPii.exit.i.i.i.i.i.i, %if.end8.sink.split.i.i.i.i
  store ptr getelementptr inbounds ({ [11 x ptr] }, ptr @_ZTVN19OpenColorIO_v2_4dev22XmlReaderSaturationEltE, i64 0, i32 0, i64 2), ptr %this, align 8
  %m_contentData = getelementptr inbounds i8, ptr %this, i64 96
  tail call void @_ZNSt7__cxx1112basic_stringIcSt11char_traitsIcESaIcEEC1Ev(ptr noundef nonnull align 8 dereferenceable(32) %m_contentData) #25
  ret void

lpad:                                             ; preds = %_ZNSt10shared_ptrIN19OpenColorIO_v2_4dev21XmlReaderContainerEltEEC2ERKS2_.exit
  %21 = landingpad { ptr, i32 }
          cleanup
  br label %lpad.body

lpad.body:                                        ; preds = %lpad.i.i, %lpad
  %eh.lpad-body = phi { ptr, i32 } [ %21, %lpad ], [ %5, %lpad.i.i ]
  call void @_ZNSt10shared_ptrIN19OpenColorIO_v2_4dev21XmlReaderContainerEltEED2Ev(ptr noundef nonnull align 8 dereferenceable(16) %agg.tmp) #25
  resume { ptr, i32 } %eh.lpad-body
}